target datalayout = "e-m:e-p270:32:32-p271:32:32-p272:64:64-i64:64-i128:128-f80:128-n8:16:32:64-S128"
target triple = "x86_64-pc-linux-gnu"

%struct.RBasic = type { i64, i64 }

; Function Attrs: inlinehint nounwind sspstrong memory(argmem: readwrite, inaccessiblemem: readwrite) uwtable
define internal void @rbimpl_fl_unset_raw_raw(ptr noundef %0, i64 noundef %1) #4 {
  %3 = alloca ptr, align 8
  %4 = alloca i64, align 8
  store ptr %0, ptr %3, align 8, !tbaa !40
  store i64 %1, ptr %4, align 8, !tbaa !12
  %5 = load i64, ptr %4, align 8, !tbaa !12
  %6 = xor i64 %5, -1
  %7 = load ptr, ptr %3, align 8, !tbaa !40
  %8 = getelementptr inbounds nuw %struct.RBasic, ptr %7, i32 0, i32 0
  %9 = load i64, ptr %8, align 8, !tbaa !42
  %10 = and i64 %9, %6
  store i64 %10, ptr %8, align 8, !tbaa !42
  ret void
}

; Function Attrs: inlinehint nounwind sspstrong uwtable
define internal void @RB_FL_UNSET_RAW(i64 noundef %0, i64 noundef %1) #3 {
  %3 = alloca i64, align 8
  %4 = alloca i64, align 8
  store i64 %0, ptr %3, align 8, !tbaa !12
  store i64 %1, ptr %4, align 8, !tbaa !12
  %5 = load i64, ptr %3, align 8, !tbaa !12
  %6 = inttoptr i64 %5 to ptr
  %7 = load i64, ptr %4, align 8, !tbaa !12
  call void @rbimpl_fl_unset_raw_raw(ptr noundef %6, i64 noundef %7) #19
  ret void
}

; Function Attrs: nounwind sspstrong uwtable
define internal i64 @strftime_size_limit(i64 noundef %0) #0 {
  %2 = alloca i64, align 8
  %3 = alloca i64, align 8
  store i64 %0, ptr %2, align 8, !tbaa !12
  call void @llvm.lifetime.start.p0(i64 8, ptr %3) #17
  %4 = load i64, ptr %2, align 8, !tbaa !12
  %5 = mul i64 %4, 1048576
  store i64 %5, ptr %3, align 8, !tbaa !12
  %6 = load i64, ptr %3, align 8, !tbaa !12
  %7 = load i64, ptr %2, align 8, !tbaa !12
  %8 = icmp ult i64 %6, %7
  br i1 %8, label %9, label %11

9:                                                ; preds = %1
  %10 = load i64, ptr %2, align 8, !tbaa !12
  store i64 %10, ptr %3, align 8, !tbaa !12
  br label %16

11:                                               ; preds = %1
  %12 = load i64, ptr %3, align 8, !tbaa !12
  %13 = icmp ult i64 %12, 1024
  br i1 %13, label %14, label %15

14:                                               ; preds = %11
  store i64 1024, ptr %3, align 8, !tbaa !12
  br label %15

15:                                               ; preds = %14, %11
  br label %16

16:                                               ; preds = %15, %9
  %17 = load i64, ptr %3, align 8, !tbaa !12
  call void @llvm.lifetime.end.p0(i64 8, ptr %3) #17
  ret i64 %17
}

; Function Attrs: inlinehint nounwind sspstrong uwtable
define internal void @RB_ENC_CODERANGE_CLEAR(i64 noundef %0) #3 {
  %2 = alloca i64, align 8
  store i64 %0, ptr %2, align 8, !tbaa !12
  %3 = load i64, ptr %2, align 8, !tbaa !12
  call void @RB_FL_UNSET_RAW(i64 noundef %3, i64 noundef 3145728)
  ret void
}

; Function Attrs: nounwind sspstrong uwtable
define hidden i64 @rb_strftime(ptr noundef %0, i64 noundef %1, ptr noundef %2, i64 noundef %3, ptr noundef %4, i64 noundef %5, i32 noundef %6) #0 {
  %8 = alloca ptr, align 8
  %9 = alloca i64, align 8
  %10 = alloca ptr, align 8
  %11 = alloca i64, align 8
  %12 = alloca ptr, align 8
  %13 = alloca i64, align 8
  %14 = alloca i32, align 4
  %15 = alloca i64, align 8
  store ptr %0, ptr %8, align 8, !tbaa !7
  store i64 %1, ptr %9, align 8, !tbaa !12
  store ptr %2, ptr %10, align 8, !tbaa !14
  store i64 %3, ptr %11, align 8, !tbaa !12
  store ptr %4, ptr %12, align 8, !tbaa !16
  store i64 %5, ptr %13, align 8, !tbaa !12
  store i32 %6, ptr %14, align 4, !tbaa !18
  call void @llvm.lifetime.start.p0(i64 8, ptr %15) #17
  %16 = load ptr, ptr %10, align 8, !tbaa !14
  %17 = call i64 @rb_enc_str_new_static(ptr noundef null, i64 noundef 0, ptr noundef %16)
  store i64 %17, ptr %15, align 8, !tbaa !12
  %18 = load i64, ptr %15, align 8, !tbaa !12
  call void @RB_ENC_CODERANGE_CLEAR(i64 noundef %18)
  %19 = load i64, ptr %15, align 8, !tbaa !12
  %20 = load ptr, ptr %8, align 8, !tbaa !7
  %21 = load i64, ptr %9, align 8, !tbaa !12
  %22 = load ptr, ptr %10, align 8, !tbaa !14
  %23 = load i64, ptr %11, align 8, !tbaa !12
  %24 = load ptr, ptr %12, align 8, !tbaa !16
  %25 = load i64, ptr %13, align 8, !tbaa !12
  %26 = load i32, ptr %14, align 4, !tbaa !18
  %27 = load i64, ptr %9, align 8, !tbaa !12
  %28 = call i64 @strftime_size_limit(i64 noundef %27)
  %29 = call i64 @rb_strftime_with_timespec(i64 noundef %19, ptr noundef %20, i64 noundef %21, ptr noundef %22, i64 noundef %23, ptr noundef %24, i64 noundef %25, ptr noundef null, i32 noundef %26, i64 noundef %28)
  call void @llvm.lifetime.end.p0(i64 8, ptr %15) #17
  ret i64 %29
}