; Function Attrs: nounwind sspstrong uwtable
define hidden noundef i64 @rb_strftime(ptr noundef %0, i64 noundef %1, ptr noundef %2, i64 noundef %3, ptr noundef %4, i64 noundef %5, i32 noundef %6) local_unnamed_addr #0 {
  %8 = tail call i64 @rb_enc_str_new_static(ptr noundef null, i64 noundef 0, ptr noundef %2) #12
  %9 = inttoptr i64 %8 to ptr
  %10 = load i64, ptr %9, align 8, !tbaa !7
  %11 = and i64 %10, -3145729
  store i64 %11, ptr %9, align 8, !tbaa !7
  %12 = shl i64 %1, 20
  %13 = icmp ult i64 %12, %1
  %14 = icmp eq i64 %12, 0
  %spec.store.select.i = select i1 %14, i64 1024, i64 %12
  %.0.i = select i1 %13, i64 %1, i64 %spec.store.select.i
  %15 = tail call fastcc i64 @rb_strftime_with_timespec(i64 noundef %8, ptr noundef %0, i64 noundef %1, ptr noundef %2, i64 noundef %3, ptr noundef %4, i64 noundef %5, ptr noundef null, i32 noundef %6, i64 noundef %.0.i)
  ret i64 %15
}